; Function Attrs: mustprogress nofree norecurse nosync nounwind willreturn memory(readwrite, inaccessiblemem: none) uwtable
define void @lv_display_enable_invalidation(ptr noundef %0, i1 noundef zeroext %1) local_unnamed_addr #8 {
  %.not = icmp eq ptr %0, null
  br i1 %.not, label %3, label %.thread

3:                                                ; preds = %2
  %4 = load ptr, ptr getelementptr inbounds nuw (i8, ptr @lv_global, i64 40), align 8, !tbaa !33
  %.not4 = icmp eq ptr %4, null
  br i1 %.not4, label %9, label %.thread

.thread:                                          ; preds = %2, %3
  %.07 = phi ptr [ %4, %3 ], [ %0, %2 ]
  %5 = select i1 %1, i32 1, i32 -1
  %6 = getelementptr inbounds nuw i8, ptr %.07, i64 644
  %7 = load i32, ptr %6, align 4, !tbaa !31
  %8 = add nsw i32 %7, %5
  store i32 %8, ptr %6, align 4, !tbaa !31
  br label %9

9:                                                ; preds = %3, %.thread
  ret void
}